target datalayout = "e-m:e-p270:32:32-p271:32:32-p272:64:64-i64:64-i128:128-f80:128-n8:16:32:64-S128"
target triple = "x86_64-pc-linux-gnu"

%struct.AppendState = type { %struct.PlanState, ptr, i32, i32, i8, ptr, i32, ptr, ptr, i32, i8, i32, ptr, ptr, i32, ptr, i64, ptr, i8, ptr, ptr, ptr }
%struct.PlanState = type { i32, ptr, ptr, ptr, ptr, ptr, ptr, ptr, ptr, ptr, ptr, ptr, ptr, ptr, ptr, ptr, ptr, ptr, i8, ptr, ptr, ptr, ptr, ptr, i8, i8, i8, i8, i8, i8, i8, i8 }
%struct.EState = type { i32, i32, ptr, ptr, ptr, i32, ptr, ptr, ptr, ptr, ptr, ptr, ptr, ptr, ptr, ptr, i32, ptr, ptr, ptr, ptr, ptr, ptr, ptr, ptr, ptr, ptr, i64, i64, i32, i32, i8, ptr, ptr, ptr, ptr, ptr, i8, i32, i32, ptr, i32, ptr, ptr, ptr, ptr }

; Function Attrs: nounwind uwtable
define internal zeroext i1 @choose_next_subplan_locally(ptr noundef %0) #0 {
  %2 = alloca i1, align 1
  %3 = alloca ptr, align 8
  %4 = alloca i32, align 4
  %5 = alloca i32, align 4
  %6 = alloca i32, align 4
  store ptr %0, ptr %3, align 8
  call void @llvm.lifetime.start.p0(i64 4, ptr %4) #6
  %7 = load ptr, ptr %3, align 8
  %8 = getelementptr inbounds nuw %struct.AppendState, ptr %7, i32 0, i32 3
  %9 = load i32, ptr %8, align 4
  store i32 %9, ptr %4, align 4
  call void @llvm.lifetime.start.p0(i64 4, ptr %5) #6
  %10 = load ptr, ptr %3, align 8
  %11 = getelementptr inbounds nuw %struct.AppendState, ptr %10, i32 0, i32 10
  %12 = load i8, ptr %11, align 4, !range !4, !noundef !5
  %13 = trunc i8 %12 to i1
  br i1 %13, label %14, label %15

14:                                               ; preds = %1
  store i1 false, ptr %2, align 1
  store i32 1, ptr %6, align 4
  br label %76

15:                                               ; preds = %1
  %16 = load i32, ptr %4, align 4
  %17 = icmp eq i32 %16, -1
  br i1 %17, label %18, label %40

18:                                               ; preds = %15
  %19 = load ptr, ptr %3, align 8
  %20 = getelementptr inbounds nuw %struct.AppendState, ptr %19, i32 0, i32 6
  %21 = load i32, ptr %20, align 8
  %22 = icmp sgt i32 %21, 0
  br i1 %22, label %23, label %24

23:                                               ; preds = %18
  br label %39

24:                                               ; preds = %18
  %25 = load ptr, ptr %3, align 8
  %26 = getelementptr inbounds nuw %struct.AppendState, ptr %25, i32 0, i32 18
  %27 = load i8, ptr %26, align 8, !range !4, !noundef !5
  %28 = trunc i8 %27 to i1
  br i1 %28, label %38, label %29

29:                                               ; preds = %24
  %30 = load ptr, ptr %3, align 8
  %31 = getelementptr inbounds nuw %struct.AppendState, ptr %30, i32 0, i32 17
  %32 = load ptr, ptr %31, align 8
  %33 = call ptr @ExecFindMatchingSubPlans(ptr noundef %32, i1 noundef zeroext false, ptr noundef null)
  %34 = load ptr, ptr %3, align 8
  %35 = getelementptr inbounds nuw %struct.AppendState, ptr %34, i32 0, i32 19
  store ptr %33, ptr %35, align 8
  %36 = load ptr, ptr %3, align 8
  %37 = getelementptr inbounds nuw %struct.AppendState, ptr %36, i32 0, i32 18
  store i8 1, ptr %37, align 8
  br label %38

38:                                               ; preds = %29, %24
  br label %39

39:                                               ; preds = %38, %23
  store i32 -1, ptr %4, align 4
  br label %40

40:                                               ; preds = %39, %15
  %41 = load ptr, ptr %3, align 8
  %42 = getelementptr inbounds nuw %struct.AppendState, ptr %41, i32 0, i32 0
  %43 = getelementptr inbounds nuw %struct.PlanState, ptr %42, i32 0, i32 2
  %44 = load ptr, ptr %43, align 8
  %45 = getelementptr inbounds nuw %struct.EState, ptr %44, i32 0, i32 1
  %46 = load i32, ptr %45, align 4
  %47 = icmp eq i32 %46, 1
  br i1 %47, label %48, label %54

48:                                               ; preds = %40
  %49 = load ptr, ptr %3, align 8
  %50 = getelementptr inbounds nuw %struct.AppendState, ptr %49, i32 0, i32 19
  %51 = load ptr, ptr %50, align 8
  %52 = load i32, ptr %4, align 4
  %53 = call i32 @bms_next_member(ptr noundef %51, i32 noundef %52)
  store i32 %53, ptr %5, align 4
  br label %60

54:                                               ; preds = %40
  %55 = load ptr, ptr %3, align 8
  %56 = getelementptr inbounds nuw %struct.AppendState, ptr %55, i32 0, i32 19
  %57 = load ptr, ptr %56, align 8
  %58 = load i32, ptr %4, align 4
  %59 = call i32 @bms_prev_member(ptr noundef %57, i32 noundef %58)
  store i32 %59, ptr %5, align 4
  br label %60

60:                                               ; preds = %54, %48
  %61 = load i32, ptr %5, align 4
  %62 = icmp slt i32 %61, 0
  br i1 %62, label %63, label %72

63:                                               ; preds = %60
  %64 = load ptr, ptr %3, align 8
  %65 = getelementptr inbounds nuw %struct.AppendState, ptr %64, i32 0, i32 6
  %66 = load i32, ptr %65, align 8
  %67 = icmp sgt i32 %66, 0
  br i1 %67, label %68, label %71

68:                                               ; preds = %63
  %69 = load ptr, ptr %3, align 8
  %70 = getelementptr inbounds nuw %struct.AppendState, ptr %69, i32 0, i32 10
  store i8 1, ptr %70, align 4
  br label %71

71:                                               ; preds = %68, %63
  store i1 false, ptr %2, align 1
  store i32 1, ptr %6, align 4
  br label %76

72:                                               ; preds = %60
  %73 = load i32, ptr %5, align 4
  %74 = load ptr, ptr %3, align 8
  %75 = getelementptr inbounds nuw %struct.AppendState, ptr %74, i32 0, i32 3
  store i32 %73, ptr %75, align 4
  store i1 true, ptr %2, align 1
  store i32 1, ptr %6, align 4
  br label %76

76:                                               ; preds = %72, %71, %14
  call void @llvm.lifetime.end.p0(i64 4, ptr %5) #6
  call void @llvm.lifetime.end.p0(i64 4, ptr %4) #6
  %77 = load i1, ptr %2, align 1
  ret i1 %77
}