; Function Attrs: nounwind uwtable
define internal noundef zeroext i1 @choose_next_subplan_locally(ptr noundef captures(none) %0) #0 {
  %2 = getelementptr inbounds nuw i8, ptr %0, i64 212
  %3 = getelementptr inbounds nuw i8, ptr %0, i64 260
  %4 = load i8, ptr %3, align 4, !range !4, !noundef !5
  %5 = trunc nuw i8 %4 to i1
  br i1 %5, label %42, label %6

6:                                                ; preds = %1
  %7 = load i32, ptr %2, align 4
  %8 = icmp eq i32 %7, -1
  br i1 %8, label %9, label %22

9:                                                ; preds = %6
  %10 = getelementptr inbounds nuw i8, ptr %0, i64 232
  %11 = load i32, ptr %10, align 8
  %12 = icmp sgt i32 %11, 0
  br i1 %12, label %22, label %13

13:                                               ; preds = %9
  %14 = getelementptr inbounds nuw i8, ptr %0, i64 320
  %15 = load i8, ptr %14, align 8, !range !4, !noundef !5
  %16 = trunc nuw i8 %15 to i1
  br i1 %16, label %22, label %17

17:                                               ; preds = %13
  %18 = getelementptr inbounds nuw i8, ptr %0, i64 312
  %19 = load ptr, ptr %18, align 8
  %20 = tail call ptr @ExecFindMatchingSubPlans(ptr noundef %19, i1 noundef zeroext false, ptr noundef null) #6
  %21 = getelementptr inbounds nuw i8, ptr %0, i64 328
  store ptr %20, ptr %21, align 8
  store i8 1, ptr %14, align 8
  br label %22

22:                                               ; preds = %9, %17, %13, %6
  %23 = getelementptr inbounds nuw i8, ptr %0, i64 16
  %24 = load ptr, ptr %23, align 8
  %25 = getelementptr inbounds nuw i8, ptr %24, i64 4
  %26 = load i32, ptr %25, align 4
  %27 = icmp eq i32 %26, 1
  %28 = getelementptr inbounds nuw i8, ptr %0, i64 328
  %29 = load ptr, ptr %28, align 8
  br i1 %27, label %30, label %32

30:                                               ; preds = %22
  %31 = tail call i32 @bms_next_member(ptr noundef %29, i32 noundef %7) #6
  br label %34

32:                                               ; preds = %22
  %33 = tail call i32 @bms_prev_member(ptr noundef %29, i32 noundef %7) #6
  br label %34

34:                                               ; preds = %32, %30
  %.0 = phi i32 [ %31, %30 ], [ %33, %32 ]
  %35 = icmp slt i32 %.0, 0
  br i1 %35, label %36, label %41

36:                                               ; preds = %34
  %37 = getelementptr inbounds nuw i8, ptr %0, i64 232
  %38 = load i32, ptr %37, align 8
  %39 = icmp sgt i32 %38, 0
  br i1 %39, label %40, label %42

40:                                               ; preds = %36
  store i8 1, ptr %3, align 4
  br label %42

41:                                               ; preds = %34
  store i32 %.0, ptr %2, align 4
  br label %42

42:                                               ; preds = %36, %40, %1, %41
  %.019 = phi i1 [ true, %41 ], [ false, %1 ], [ false, %40 ], [ false, %36 ]
  ret i1 %.019
}